target datalayout = "e-m:e-p270:32:32-p271:32:32-p272:64:64-i64:64-i128:128-f80:128-n8:16:32:64-S128"
target triple = "x86_64-pc-linux-gnu"

%struct.ossl_cmp_ctx_st = type { ptr, ptr, ptr, i32, ptr, ptr, ptr, ptr, ptr, i32, ptr, ptr, i32, i32, i32, i32, i64, ptr, ptr, i32, i32, ptr, ptr, ptr, ptr, ptr, i32, i32, i32, ptr, ptr, ptr, ptr, ptr, i64, ptr, i32, i32, ptr, ptr, ptr, ptr, ptr, ptr, ptr, ptr, i32, i32, ptr, ptr, i32, ptr, ptr, i32, ptr, ptr, i32, i32, ptr, ptr, i32, i32, ptr, ptr, i32, ptr, i32, ptr, i32, ptr, ptr, ptr, ptr, ptr, ptr }
%struct.ossl_cmp_msg_st = type { ptr, ptr, ptr, ptr, ptr, ptr }
%struct.ossl_cmp_pkibody_st = type { i32, %union.anon }
%union.anon = type { ptr }

@.str = private unnamed_addr constant [32 x i8] c"../openssl/crypto/cmp/cmp_vfy.c\00", align 1
@__func__.ossl_cmp_verify_popo = private unnamed_addr constant [21 x i8] c"ossl_cmp_verify_popo\00", align 1

; Function Attrs: nounwind uwtable
define i32 @ossl_cmp_verify_popo(ptr noundef %0, ptr noundef %1, i32 noundef %2) #0 {
  %4 = alloca i32, align 4
  %5 = alloca ptr, align 8
  %6 = alloca ptr, align 8
  %7 = alloca i32, align 4
  %8 = alloca ptr, align 8
  %9 = alloca i32, align 4
  store ptr %0, ptr %5, align 8, !tbaa !3
  store ptr %1, ptr %6, align 8, !tbaa !36
  store i32 %2, ptr %7, align 4, !tbaa !12
  %10 = load ptr, ptr %6, align 8, !tbaa !36
  %11 = icmp ne ptr %10, null
  br i1 %11, label %12, label %17

12:                                               ; preds = %3
  %13 = load ptr, ptr %6, align 8, !tbaa !36
  %14 = getelementptr inbounds nuw %struct.ossl_cmp_msg_st, ptr %13, i32 0, i32 1
  %15 = load ptr, ptr %14, align 8, !tbaa !42
  %16 = icmp ne ptr %15, null
  br label %17

17:                                               ; preds = %12, %3
  %18 = phi i1 [ false, %3 ], [ %16, %12 ]
  %19 = zext i1 %18 to i32
  %20 = icmp ne i32 %19, 0
  %21 = xor i1 %20, true
  %22 = xor i1 %21, true
  %23 = zext i1 %22 to i32
  %24 = sext i32 %23 to i64
  %25 = call i64 @llvm.expect.i64(i64 %24, i64 1)
  %26 = icmp ne i64 %25, 0
  br i1 %26, label %28, label %27

27:                                               ; preds = %17
  store i32 0, ptr %4, align 4
  br label %75

28:                                               ; preds = %17
  %29 = load ptr, ptr %6, align 8, !tbaa !36
  %30 = getelementptr inbounds nuw %struct.ossl_cmp_msg_st, ptr %29, i32 0, i32 1
  %31 = load ptr, ptr %30, align 8, !tbaa !42
  %32 = getelementptr inbounds nuw %struct.ossl_cmp_pkibody_st, ptr %31, i32 0, i32 0
  %33 = load i32, ptr %32, align 8, !tbaa !91
  switch i32 %33, label %73 [
    i32 4, label %34
    i32 0, label %56
    i32 2, label %56
    i32 7, label %56
  ]

34:                                               ; preds = %28
  call void @llvm.lifetime.start.p0(i64 8, ptr %8) #5
  %35 = load ptr, ptr %6, align 8, !tbaa !36
  %36 = getelementptr inbounds nuw %struct.ossl_cmp_msg_st, ptr %35, i32 0, i32 1
  %37 = load ptr, ptr %36, align 8, !tbaa !42
  %38 = getelementptr inbounds nuw %struct.ossl_cmp_pkibody_st, ptr %37, i32 0, i32 1
  %39 = load ptr, ptr %38, align 8, !tbaa !52
  store ptr %39, ptr %8, align 8, !tbaa !93
  %40 = load ptr, ptr %8, align 8, !tbaa !93
  %41 = load ptr, ptr %8, align 8, !tbaa !93
  %42 = call ptr @X509_REQ_get0_pubkey(ptr noundef %41)
  %43 = load ptr, ptr %5, align 8, !tbaa !3
  %44 = getelementptr inbounds nuw %struct.ossl_cmp_ctx_st, ptr %43, i32 0, i32 0
  %45 = load ptr, ptr %44, align 8, !tbaa !16
  %46 = load ptr, ptr %5, align 8, !tbaa !3
  %47 = getelementptr inbounds nuw %struct.ossl_cmp_ctx_st, ptr %46, i32 0, i32 1
  %48 = load ptr, ptr %47, align 8, !tbaa !33
  %49 = call i32 @X509_REQ_verify_ex(ptr noundef %40, ptr noundef %42, ptr noundef %45, ptr noundef %48)
  %50 = icmp sle i32 %49, 0
  br i1 %50, label %51, label %52

51:                                               ; preds = %34
  call void @ERR_new()
  call void @ERR_set_debug(ptr noundef @.str, i32 noundef 889, ptr noundef @__func__.ossl_cmp_verify_popo)
  call void (i32, i32, ptr, ...) @ERR_set_error(i32 noundef 58, i32 noundef 149, ptr noundef null)
  store i32 0, ptr %4, align 4
  store i32 1, ptr %9, align 4
  br label %53

52:                                               ; preds = %34
  store i32 0, ptr %9, align 4
  br label %53

53:                                               ; preds = %52, %51
  call void @llvm.lifetime.end.p0(i64 8, ptr %8) #5
  %54 = load i32, ptr %9, align 4
  switch i32 %54, label %77 [
    i32 0, label %55
    i32 1, label %75
  ]

55:                                               ; preds = %53
  br label %74

56:                                               ; preds = %28, %28, %28
  %57 = load ptr, ptr %6, align 8, !tbaa !36
  %58 = getelementptr inbounds nuw %struct.ossl_cmp_msg_st, ptr %57, i32 0, i32 1
  %59 = load ptr, ptr %58, align 8, !tbaa !42
  %60 = getelementptr inbounds nuw %struct.ossl_cmp_pkibody_st, ptr %59, i32 0, i32 1
  %61 = load ptr, ptr %60, align 8, !tbaa !52
  %62 = load i32, ptr %7, align 4, !tbaa !12
  %63 = load ptr, ptr %5, align 8, !tbaa !3
  %64 = getelementptr inbounds nuw %struct.ossl_cmp_ctx_st, ptr %63, i32 0, i32 0
  %65 = load ptr, ptr %64, align 8, !tbaa !16
  %66 = load ptr, ptr %5, align 8, !tbaa !3
  %67 = getelementptr inbounds nuw %struct.ossl_cmp_ctx_st, ptr %66, i32 0, i32 1
  %68 = load ptr, ptr %67, align 8, !tbaa !33
  %69 = call i32 @OSSL_CRMF_MSGS_verify_popo(ptr noundef %61, i32 noundef 0, i32 noundef %62, ptr noundef %65, ptr noundef %68)
  %70 = icmp ne i32 %69, 0
  br i1 %70, label %72, label %71

71:                                               ; preds = %56
  store i32 0, ptr %4, align 4
  br label %75

72:                                               ; preds = %56
  br label %74

73:                                               ; preds = %28
  call void @ERR_new()
  call void @ERR_set_debug(ptr noundef @.str, i32 noundef 907, ptr noundef @__func__.ossl_cmp_verify_popo)
  call void (i32, i32, ptr, ...) @ERR_set_error(i32 noundef 58, i32 noundef 146, ptr noundef null)
  store i32 0, ptr %4, align 4
  br label %75

74:                                               ; preds = %72, %55
  store i32 1, ptr %4, align 4
  br label %75

75:                                               ; preds = %74, %73, %71, %53, %27
  %76 = load i32, ptr %4, align 4
  ret i32 %76

77:                                               ; preds = %53
  unreachable
}