; Function Attrs: nounwind uwtable
define range(i32 0, 2) i32 @ossl_cmp_verify_popo(ptr noundef readonly captures(none) %0, ptr noundef readonly captures(address_is_null) %1, i32 noundef %2) local_unnamed_addr #0 {
  %.not = icmp eq ptr %1, null
  br i1 %.not, label %.critedge, label %4

4:                                                ; preds = %3
  %5 = getelementptr inbounds nuw i8, ptr %1, i64 8
  %6 = load ptr, ptr %5, align 8, !tbaa !32
  %.not17 = icmp eq ptr %6, null
  br i1 %.not17, label %.critedge, label %7, !prof !59

7:                                                ; preds = %4
  %8 = load i32, ptr %6, align 8, !tbaa !72
  switch i32 %8, label %26 [
    i32 4, label %9
    i32 0, label %19
    i32 2, label %19
    i32 7, label %19
  ]

9:                                                ; preds = %7
  %10 = getelementptr inbounds nuw i8, ptr %6, i64 8
  %11 = load ptr, ptr %10, align 8, !tbaa !42
  %12 = tail call ptr @X509_REQ_get0_pubkey(ptr noundef %11) #3
  %13 = load ptr, ptr %0, align 8, !tbaa !3
  %14 = getelementptr inbounds nuw i8, ptr %0, i64 8
  %15 = load ptr, ptr %14, align 8, !tbaa !26
  %16 = tail call i32 @X509_REQ_verify_ex(ptr noundef %11, ptr noundef %12, ptr noundef %13, ptr noundef %15) #3
  %17 = icmp slt i32 %16, 1
  br i1 %17, label %18, label %.thread

18:                                               ; preds = %9
  tail call void @ERR_new() #3
  tail call void @ERR_set_debug(ptr noundef nonnull @.str, i32 noundef 889, ptr noundef nonnull @__func__.ossl_cmp_verify_popo) #3
  tail call void (i32, i32, ptr, ...) @ERR_set_error(i32 noundef 58, i32 noundef 149, ptr noundef null) #3
  br label %.critedge

19:                                               ; preds = %7, %7, %7
  %20 = getelementptr inbounds nuw i8, ptr %6, i64 8
  %21 = load ptr, ptr %20, align 8, !tbaa !42
  %22 = load ptr, ptr %0, align 8, !tbaa !3
  %23 = getelementptr inbounds nuw i8, ptr %0, i64 8
  %24 = load ptr, ptr %23, align 8, !tbaa !26
  %25 = tail call i32 @OSSL_CRMF_MSGS_verify_popo(ptr noundef %21, i32 noundef 0, i32 noundef %2, ptr noundef %22, ptr noundef %24) #3
  %.not15 = icmp eq i32 %25, 0
  br i1 %.not15, label %.critedge, label %.thread

26:                                               ; preds = %7
  tail call void @ERR_new() #3
  tail call void @ERR_set_debug(ptr noundef nonnull @.str, i32 noundef 907, ptr noundef nonnull @__func__.ossl_cmp_verify_popo) #3
  tail call void (i32, i32, ptr, ...) @ERR_set_error(i32 noundef 58, i32 noundef 146, ptr noundef null) #3
  br label %.critedge

.thread:                                          ; preds = %9, %19
  br label %.critedge

.critedge:                                        ; preds = %18, %3, %19, %4, %.thread, %26
  %.013 = phi i32 [ 0, %26 ], [ 1, %.thread ], [ 0, %18 ], [ 0, %4 ], [ 0, %19 ], [ 0, %3 ]
  ret i32 %.013
}